(lp0
(dp1
S'fprlcbs'
p2
F0.05
sS'tprlc'
p3
F0.35
sS'fprbs'
p4
F0.4
sS'fprlc'
p5
F0.1
sS'tprbs'
p6
F0.3
sS'tprlcbs'
p7
F0.5
sa(dp8
g2
F0.35
sg3
F0.45
sg4
F0.2
sg5
F0.45
sg6
F0.25
sg7
F0.4
sa(dp9
g2
F0.2
sg3
F0.2
sg4
F0.15
sg5
F0.0
sg6
F0.45
sg7
F0.5
sa(dp10
g2
F0.25
sg3
F0.65
sg4
F0.5
sg5
F0.55
sg6
F0.35
sg7
F0.75
sa(dp11
g2
F0.1
sg3
F0.45
sg4
F0.2
sg5
F0.4
sg6
F0.55
sg7
F0.55
sa(dp12
g2
F0.25
sg3
F0.35
sg4
F0.2
sg5
F0.4
sg6
F0.6
sg7
F0.65
sa(dp13
g2
F0.2
sg3
F0.45
sg4
F0.25
sg5
F0.3
sg6
F0.65
sg7
F0.7
sa(dp14
g2
F0.2
sg3
F0.5
sg4
F0.25
sg5
F0.2
sg6
F0.55
sg7
F0.6
sa(dp15
g2
F0.0
sg3
F0.35
sg4
F0.15
sg5
F0.0
sg6
F0.5
sg7
F0.35
sa(dp16
g2
F0.4
sg3
F0.4
sg4
F0.5
sg5
F0.55
sg6
F0.45
sg7
F0.45
sa(dp17
g2
F0.2
sg3
F0.5
sg4
F0.2
sg5
F0.2
sg6
F0.6
sg7
F0.65
sa(dp18
g2
F0.5
sg3
F0.6
sg4
F0.45
sg5
F0.7
sg6
F0.35
sg7
F0.55
sa(dp19
g2
F0.25
sg3
F0.35
sg4
F0.2
sg5
F0.35
sg6
F0.5
sg7
F0.75
sa(dp20
g2
F0.0
sg3
F0.65
sg4
F0.2
sg5
F0.0
sg6
F0.9
sg7
F0.75
sa(dp21
g2
F0.3
sg3
F0.45
sg4
F0.45
sg5
F0.4
sg6
F0.55
sg7
F0.4
sa(dp22
g2
F0.15
sg3
F0.6
sg4
F0.1
sg5
F0.35
sg6
F0.2
sg7
F0.55
sa(dp23
g2
F0.3
sg3
F0.6
sg4
F0.55
sg5
F0.4
sg6
F0.65
sg7
F0.5
sa(dp24
g2
F0.2
sg3
F0.15
sg4
F0.25
sg5
F0.0
sg6
F0.55
sg7
F0.5
sa(dp25
g2
F0.3
sg3
F0.35
sg4
F0.3
sg5
F0.25
sg6
F0.55
sg7
F0.6
sa(dp26
g2
F0.2
sg3
F0.4
sg4
F0.4
sg5
F0.15
sg6
F0.75
sg7
F0.6
sa(dp27
g2
F0.0
sg3
F0.5
sg4
F0.2
sg5
F0.35
sg6
F0.55
sg7
F0.5
sa(dp28
g2
F0.25
sg3
F0.3
sg4
F0.15
sg5
F0.4
sg6
F0.05
sg7
F0.35
sa(dp29
g2
F0.1
sg3
F0.3
sg4
F0.1
sg5
F0.3
sg6
F0.45
sg7
F0.55
sa(dp30
g2
F0.35
sg3
F0.5
sg4
F0.5
sg5
F0.6
sg6
F0.3
sg7
F0.25
sa(dp31
g2
F0.2
sg3
F0.35
sg4
F0.25
sg5
F0.1
sg6
F0.6
sg7
F0.55
sa(dp32
g2
F0.35
sg3
F0.6
sg4
F0.5
sg5
F0.5
sg6
F0.65
sg7
F0.6
sa(dp33
g2
F0.35
sg3
F0.6
sg4
F0.5
sg5
F0.65
sg6
F0.3
sg7
F0.4
sa.