(lp0
(dp1
S'fprlcbs'
p2
F0.1
sS'tprlc'
p3
F0.5
sS'fprbs'
p4
F0.35
sS'fprlc'
p5
F0.1
sS'tprbs'
p6
F0.4
sS'tprlcbs'
p7
F0.55
sa(dp8
g2
F0.1
sg3
F0.35
sg4
F0.15
sg5
F0.1
sg6
F0.45
sg7
F0.4
sa(dp9
g2
F0.25
sg3
F0.15
sg4
F0.1
sg5
F0.35
sg6
F0.2
sg7
F0.45
sa(dp10
g2
F0.55
sg3
F0.5
sg4
F0.4
sg5
F0.5
sg6
F0.35
sg7
F0.6
sa(dp11
g2
F0.25
sg3
F0.5
sg4
F0.3
sg5
F0.2
sg6
F0.5
sg7
F0.55
sa(dp12
g2
F0.25
sg3
F0.5
sg4
F0.3
sg5
F0.2
sg6
F0.6
sg7
F0.75
sa(dp13
g2
F0.15
sg3
F0.25
sg4
F0.25
sg5
F0.05
sg6
F0.6
sg7
F0.6
sa(dp14
g2
F0.25
sg3
F0.4
sg4
F0.55
sg5
F0.45
sg6
F0.5
sg7
F0.25
sa(dp15
g2
F0.1
sg3
F0.6
sg4
F0.15
sg5
F0.05
sg6
F0.4
sg7
F0.65
sa(dp16
g2
F0.15
sg3
F0.35
sg4
F0.25
sg5
F0.25
sg6
F0.45
sg7
F0.6
sa(dp17
g2
F0.25
sg3
F0.7
sg4
F0.35
sg5
F0.6
sg6
F0.75
sg7
F0.8
sa(dp18
g2
F0.35
sg3
F0.35
sg4
F0.35
sg5
F0.4
sg6
F0.3
sg7
F0.7
sa(dp19
g2
F0.5
sg3
F0.5
sg4
F0.55
sg5
F0.7
sg6
F0.4
sg7
F0.55
sa(dp20
g2
F0.25
sg3
F0.6
sg4
F0.3
sg5
F0.4
sg6
F0.7
sg7
F0.75
sa(dp21
g2
F0.2
sg3
F0.45
sg4
F0.2
sg5
F0.4
sg6
F0.4
sg7
F0.45
sa(dp22
g2
F0.65
sg3
F0.55
sg4
F0.45
sg5
F0.55
sg6
F0.55
sg7
F0.8
sa(dp23
g2
F0.0
sg3
F0.5
sg4
F0.4
sg5
F0.0
sg6
F0.8
sg7
F0.7
sa(dp24
g2
F0.15
sg3
F0.3
sg4
F0.35
sg5
F0.1
sg6
F0.55
sg7
F0.55
sa(dp25
g2
F0.1
sg3
F0.45
sg4
F0.15
sg5
F0.1
sg6
F0.45
sg7
F0.5
sa(dp26
g2
F0.15
sg3
F0.55
sg4
F0.25
sg5
F0.45
sg6
F0.55
sg7
F0.6
sa(dp27
g2
F0.15
sg3
F0.75
sg4
F0.25
sg5
F0.4
sg6
F0.55
sg7
F0.75
sa(dp28
g2
F0.15
sg3
F0.5
sg4
F0.15
sg5
F0.2
sg6
F0.55
sg7
F0.6
sa(dp29
g2
F0.25
sg3
F0.7
sg4
F0.25
sg5
F0.65
sg6
F0.6
sg7
F0.6
sa(dp30
g2
F0.2
sg3
F0.3
sg4
F0.25
sg5
F0.15
sg6
F0.5
sg7
F0.55
sa(dp31
g2
F0.05
sg3
F0.55
sg4
F0.35
sg5
F0.15
sg6
F0.55
sg7
F0.6
sa(dp32
g2
F0.0
sg3
F0.35
sg4
F0.15
sg5
F0.05
sg6
F0.55
sg7
F0.4
sa(dp33
g2
F0.15
sg3
F0.25
sg4
F0.35
sg5
F0.05
sg6
F0.65
sg7
F0.55
sa(dp34
g2
F0.25
sg3
F0.75
sg4
F0.25
sg5
F0.65
sg6
F0.55
sg7
F0.65
sa(dp35
g2
F0.1
sg3
F0.6
sg4
F0.2
sg5
F0.2
sg6
F0.65
sg7
F0.55
sa(dp36
g2
F0.2
sg3
F0.45
sg4
F0.2
sg5
F0.2
sg6
F0.55
sg7
F0.65
sa(dp37
g2
F0.35
sg3
F0.55
sg4
F0.4
sg5
F0.55
sg6
F0.75
sg7
F0.75
sa(dp38
g2
F0.1
sg3
F0.4
sg4
F0.25
sg5
F0.0
sg6
F0.55
sg7
F0.5
sa(dp39
g2
F0.1
sg3
F0.4
sg4
F0.3
sg5
F0.2
sg6
F0.7
sg7
F0.65
sa(dp40
g2
F0.35
sg3
F0.65
sg4
F0.65
sg5
F0.65
sg6
F0.6
sg7
F0.5
sa(dp41
g2
F0.15
sg3
F0.3
sg4
F0.25
sg5
F0.05
sg6
F0.55
sg7
F0.5
sa(dp42
g2
F0.3
sg3
F0.7
sg4
F0.3
sg5
F0.3
sg6
F0.7
sg7
F0.75
sa(dp43
g2
F0.2
sg3
F0.65
sg4
F0.35
sg5
F0.4
sg6
F0.6
sg7
F0.45
sa(dp44
g2
F0.2
sg3
F0.9
sg4
F0.2
sg5
F0.2
sg6
F0.65
sg7
F0.95
sa(dp45
g2
F0.2
sg3
F0.55
sg4
F0.35
sg5
F0.25
sg6
F0.65
sg7
F0.75
sa(dp46
g2
F0.0
sg3
F0.6
sg4
F0.1
sg5
F0.3
sg6
F0.5
sg7
F0.5
sa(dp47
g2
F0.1
sg3
F0.75
sg4
F0.35
sg5
F0.3
sg6
F0.65
sg7
F0.7
sa(dp48
g2
F0.0
sg3
F0.55
sg4
F0.1
sg5
F0.1
sg6
F0.55
sg7
F0.45
sa(dp49
g2
F0.25
sg3
F0.45
sg4
F0.4
sg5
F0.55
sg6
F0.7
sg7
F0.65
sa(dp50
g2
F0.45
sg3
F0.55
sg4
F0.35
sg5
F0.7
sg6
F0.15
sg7
F0.4
sa(dp51
g2
F0.3
sg3
F0.7
sg4
F0.3
sg5
F0.3
sg6
F0.7
sg7
F0.75
sa(dp52
g2
F0.25
sg3
F0.4
sg4
F0.3
sg5
F0.3
sg6
F0.5
sg7
F0.55
sa(dp53
g2
F0.0
sg3
F0.15
sg4
F0.0
sg5
F0.0
sg6
F0.2
sg7
F0.2
sa(dp54
g2
F0.0
sg3
F0.45
sg4
F0.2
sg5
F0.05
sg6
F0.7
sg7
F0.7
sa(dp55
g2
F0.05
sg3
F0.7
sg4
F0.45
sg5
F0.2
sg6
F0.8
sg7
F0.6
sa(dp56
g2
F0.15
sg3
F0.55
sg4
F0.3
sg5
F0.25
sg6
F0.7
sg7
F0.8
sa(dp57
g2
F0.25
sg3
F0.55
sg4
F0.4
sg5
F0.35
sg6
F0.6
sg7
F0.65
sa(dp58
g2
F0.05
sg3
F0.3
sg4
F0.25
sg5
F0.15
sg6
F0.55
sg7
F0.5
sa(dp59
g2
F0.05
sg3
F0.35
sg4
F0.25
sg5
F0.05
sg6
F0.45
sg7
F0.5
sa(dp60
g2
F0.25
sg3
F0.6
sg4
F0.2
sg5
F0.25
sg6
F0.6
sg7
F0.7
sa(dp61
g2
F0.1
sg3
F0.4
sg4
F0.15
sg5
F0.25
sg6
F0.55
sg7
F0.6
sa(dp62
g2
F0.1
sg3
F0.75
sg4
F0.2
sg5
F0.35
sg6
F0.75
sg7
F0.65
sa(dp63
g2
F0.15
sg3
F0.45
sg4
F0.45
sg5
F0.15
sg6
F0.55
sg7
F0.5
sa(dp64
g2
F0.1
sg3
F0.65
sg4
F0.1
sg5
F0.1
sg6
F0.7
sg7
F0.8
sa(dp65
g2
F0.2
sg3
F0.25
sg4
F0.25
sg5
F0.1
sg6
F0.45
sg7
F0.45
sa(dp66
g2
F0.2
sg3
F0.6
sg4
F0.25
sg5
F0.2
sg6
F0.75
sg7
F0.7
sa(dp67
g2
F0.2
sg3
F0.25
sg4
F0.15
sg5
F0.1
sg6
F0.4
sg7
F0.5
sa(dp68
g2
F0.1
sg3
F0.6
sg4
F0.2
sg5
F0.1
sg6
F0.6
sg7
F0.6
sa(dp69
g2
F0.25
sg3
F0.45
sg4
F0.5
sg5
F0.35
sg6
F0.6
sg7
F0.55
sa(dp70
g2
F0.3
sg3
F0.65
sg4
F0.4
sg5
F0.4
sg6
F0.65
sg7
F0.6
sa(dp71
g2
F0.35
sg3
F0.5
sg4
F0.3
sg5
F0.2
sg6
F0.65
sg7
F0.7
sa(dp72
g2
F0.2
sg3
F0.7
sg4
F0.25
sg5
F0.25
sg6
F0.8
sg7
F0.85
sa(dp73
g2
F0.3
sg3
F0.6
sg4
F0.3
sg5
F0.3
sg6
F0.55
sg7
F0.6
sa(dp74
g2
F0.35
sg3
F0.3
sg4
F0.35
sg5
F0.15
sg6
F0.6
sg7
F0.65
sa(dp75
g2
F0.1
sg3
F0.6
sg4
F0.3
sg5
F0.05
sg6
F0.4
sg7
F0.65
sa.